target datalayout = "e-m:e-p270:32:32-p271:32:32-p272:64:64-i64:64-i128:128-f80:128-n8:16:32:64-S128"
target triple = "x86_64-pc-linux-gnu"

%struct.AVBSFContext = type { ptr, ptr, ptr, ptr, ptr, %struct.AVRational, %struct.AVRational }
%struct.AVRational = type { i32, i32 }
%struct.DTS2PTSContext = type { ptr, ptr, ptr, ptr, ptr, ptr, i64, ptr, %struct.CodedBitstreamFragment, %union.anon, i32, i32, i32 }
%struct.CodedBitstreamFragment = type { ptr, i64, i64, ptr, i32, i32, ptr }
%union.anon = type { %struct.DTS2PTSH264Context }
%struct.DTS2PTSH264Context = type { %struct.H264POCContext, %struct.SPS, i32, i32, i32, i32 }
%struct.H264POCContext = type { i32, i32, i32, [2 x i32], i32, i32, i32, i32, i32, i32 }
%struct.SPS = type { i32, i32, i32, i32, i32, i32, i32, i32, i32, i32, i32, i32, i32, i32, i32, i32, i32, i32, i32, i32, i32, i32, i32, i32, i32, %struct.H2645VUI, i32, i32, i32, i32, [256 x i32], i32, i32, i32, i32, i16, [6 x [16 x i8]], [6 x [64 x i8]], i32, i32, i32, i32, i32, i32, [32 x i32], [32 x i32], i32, i32, i32, i32, i32, i32, i32, i32, [4096 x i8], i64 }
%struct.H2645VUI = type { %struct.AVRational, i32, i32, i32, i32, i32, i32, i32, i32, i32, i32, i32, i32, i32, i32, i32 }
%struct.DTS2PTSFrame = type { ptr, i32, i32, i32 }

; Function Attrs: nounwind uwtable
define internal void @dts2pts_flush(ptr noundef %0) #0 {
  %2 = alloca ptr, align 8
  %3 = alloca ptr, align 8
  %4 = alloca %struct.DTS2PTSFrame, align 8
  store ptr %0, ptr %2, align 8, !tbaa !4
  call void @llvm.lifetime.start.p0(i64 8, ptr %3) #7
  %5 = load ptr, ptr %2, align 8, !tbaa !4
  %6 = getelementptr inbounds nuw %struct.AVBSFContext, ptr %5, i32 0, i32 2
  %7 = load ptr, ptr %6, align 8, !tbaa !9
  store ptr %7, ptr %3, align 8, !tbaa !16
  call void @llvm.lifetime.start.p0(i64 24, ptr %4) #7
  %8 = load ptr, ptr %3, align 8, !tbaa !16
  %9 = getelementptr inbounds nuw %struct.DTS2PTSContext, ptr %8, i32 0, i32 5
  %10 = load ptr, ptr %9, align 8, !tbaa !43
  %11 = icmp ne ptr %10, null
  br i1 %11, label %12, label %17

12:                                               ; preds = %1
  %13 = load ptr, ptr %3, align 8, !tbaa !16
  %14 = getelementptr inbounds nuw %struct.DTS2PTSContext, ptr %13, i32 0, i32 5
  %15 = load ptr, ptr %14, align 8, !tbaa !43
  %16 = load ptr, ptr %2, align 8, !tbaa !4
  call void %15(ptr noundef %16)
  br label %17

17:                                               ; preds = %12, %1
  %18 = load ptr, ptr %3, align 8, !tbaa !16
  %19 = getelementptr inbounds nuw %struct.DTS2PTSContext, ptr %18, i32 0, i32 12
  store i32 0, ptr %19, align 8, !tbaa !56
  %20 = load ptr, ptr %3, align 8, !tbaa !16
  %21 = getelementptr inbounds nuw %struct.DTS2PTSContext, ptr %20, i32 0, i32 11
  store i32 0, ptr %21, align 4, !tbaa !75
  br label %22

22:                                               ; preds = %35, %17
  %23 = load ptr, ptr %3, align 8, !tbaa !16
  %24 = getelementptr inbounds nuw %struct.DTS2PTSContext, ptr %23, i32 0, i32 1
  %25 = load ptr, ptr %24, align 8, !tbaa !48
  %26 = icmp ne ptr %25, null
  br i1 %26, label %27, label %33

27:                                               ; preds = %22
  %28 = load ptr, ptr %3, align 8, !tbaa !16
  %29 = getelementptr inbounds nuw %struct.DTS2PTSContext, ptr %28, i32 0, i32 1
  %30 = load ptr, ptr %29, align 8, !tbaa !48
  %31 = call i32 @av_fifo_read(ptr noundef %30, ptr noundef %4, i64 noundef 1)
  %32 = icmp sge i32 %31, 0
  br label %33

33:                                               ; preds = %27, %22
  %34 = phi i1 [ false, %22 ], [ %32, %27 ]
  br i1 %34, label %35, label %37

35:                                               ; preds = %33
  %36 = getelementptr inbounds nuw %struct.DTS2PTSFrame, ptr %4, i32 0, i32 0
  call void @av_packet_free(ptr noundef %36)
  br label %22, !llvm.loop !76

37:                                               ; preds = %33
  %38 = load ptr, ptr %3, align 8, !tbaa !16
  %39 = getelementptr inbounds nuw %struct.DTS2PTSContext, ptr %38, i32 0, i32 0
  %40 = load ptr, ptr %39, align 8, !tbaa !60
  call void @av_tree_enumerate(ptr noundef %40, ptr noundef null, ptr noundef null, ptr noundef @free_node)
  %41 = load ptr, ptr %3, align 8, !tbaa !16
  %42 = getelementptr inbounds nuw %struct.DTS2PTSContext, ptr %41, i32 0, i32 0
  %43 = load ptr, ptr %42, align 8, !tbaa !60
  call void @av_tree_destroy(ptr noundef %43)
  %44 = load ptr, ptr %3, align 8, !tbaa !16
  %45 = getelementptr inbounds nuw %struct.DTS2PTSContext, ptr %44, i32 0, i32 0
  store ptr null, ptr %45, align 8, !tbaa !60
  %46 = load ptr, ptr %3, align 8, !tbaa !16
  %47 = getelementptr inbounds nuw %struct.DTS2PTSContext, ptr %46, i32 0, i32 8
  call void @ff_cbs_fragment_reset(ptr noundef %47)
  %48 = load ptr, ptr %3, align 8, !tbaa !16
  %49 = getelementptr inbounds nuw %struct.DTS2PTSContext, ptr %48, i32 0, i32 7
  %50 = load ptr, ptr %49, align 8, !tbaa !51
  %51 = icmp ne ptr %50, null
  br i1 %51, label %52, label %56

52:                                               ; preds = %37
  %53 = load ptr, ptr %3, align 8, !tbaa !16
  %54 = getelementptr inbounds nuw %struct.DTS2PTSContext, ptr %53, i32 0, i32 7
  %55 = load ptr, ptr %54, align 8, !tbaa !51
  call void @ff_cbs_flush(ptr noundef %55)
  br label %56

56:                                               ; preds = %52, %37
  call void @llvm.lifetime.end.p0(i64 24, ptr %4) #7
  call void @llvm.lifetime.end.p0(i64 8, ptr %3) #7
  ret void
}