; Function Attrs: nounwind uwtable
define internal void @dts2pts_flush(ptr noundef %0) #0 {
  %2 = alloca %struct.DTS2PTSFrame, align 8
  %3 = getelementptr inbounds nuw i8, ptr %0, i64 16
  %4 = load ptr, ptr %3, align 8, !tbaa !4
  call void @llvm.lifetime.start.p0(i64 24, ptr nonnull %2) #9
  %5 = getelementptr inbounds nuw i8, ptr %4, i64 40
  %6 = load ptr, ptr %5, align 8, !tbaa !33
  %.not = icmp eq ptr %6, null
  br i1 %.not, label %8, label %7

7:                                                ; preds = %1
  tail call void %6(ptr noundef nonnull %0) #9
  br label %8

8:                                                ; preds = %7, %1
  %9 = getelementptr inbounds nuw i8, ptr %4, i64 6312
  store i32 0, ptr %9, align 8, !tbaa !39
  %10 = getelementptr inbounds nuw i8, ptr %4, i64 6308
  store i32 0, ptr %10, align 4, !tbaa !62
  %11 = getelementptr inbounds nuw i8, ptr %4, i64 8
  %12 = load ptr, ptr %11, align 8, !tbaa !35
  %.not1618 = icmp eq ptr %12, null
  br i1 %.not1618, label %.critedge, label %.lr.ph

.lr.ph:                                           ; preds = %8, %16
  %13 = phi ptr [ %17, %16 ], [ %12, %8 ]
  %14 = call i32 @av_fifo_read(ptr noundef nonnull %13, ptr noundef nonnull %2, i64 noundef 1) #9
  %15 = icmp sgt i32 %14, -1
  br i1 %15, label %16, label %.critedge

16:                                               ; preds = %.lr.ph
  call void @av_packet_free(ptr noundef nonnull %2) #9
  %17 = load ptr, ptr %11, align 8, !tbaa !35
  %.not16 = icmp eq ptr %17, null
  br i1 %.not16, label %.critedge, label %.lr.ph, !llvm.loop !63

.critedge:                                        ; preds = %.lr.ph, %16, %8
  %18 = load ptr, ptr %4, align 8, !tbaa !44
  call void @av_tree_enumerate(ptr noundef %18, ptr noundef null, ptr noundef null, ptr noundef nonnull @free_node) #9
  %19 = load ptr, ptr %4, align 8, !tbaa !44
  call void @av_tree_destroy(ptr noundef %19) #9
  store ptr null, ptr %4, align 8, !tbaa !44
  %20 = getelementptr inbounds nuw i8, ptr %4, i64 64
  call void @ff_cbs_fragment_reset(ptr noundef nonnull %20) #9
  %21 = getelementptr inbounds nuw i8, ptr %4, i64 56
  %22 = load ptr, ptr %21, align 8, !tbaa !38
  %.not17 = icmp eq ptr %22, null
  br i1 %.not17, label %24, label %23

23:                                               ; preds = %.critedge
  call void @ff_cbs_flush(ptr noundef nonnull %22) #9
  br label %24

24:                                               ; preds = %23, %.critedge
  call void @llvm.lifetime.end.p0(i64 24, ptr nonnull %2) #9
  ret void
}